target datalayout = "e-m:e-p270:32:32-p271:32:32-p272:64:64-i64:64-i128:128-f80:128-n8:16:32:64-S128"
target triple = "x86_64-pc-linux-gnu"

%struct.AVFilterContext = type { ptr, ptr, ptr, ptr, ptr, i32, ptr, ptr, i32, ptr, ptr, i32, i32, ptr, ptr, ptr, ptr, i32, ptr, i32, i32 }
%struct.AverageBlurContext = type { ptr, i32, i32, i32, i32, i32, i32, [4 x i32], [4 x i32], ptr, [16777216 x i16], i32, [2 x ptr] }
%struct.AVFilterLink = type { ptr, ptr, ptr, ptr, i32, i32, i32, i32, %struct.AVRational, i32, i32, i32, %struct.AVChannelLayout, %struct.AVRational, ptr, i32, %struct.AVFilterFormatsConfig, %struct.AVFilterFormatsConfig }
%struct.AVChannelLayout = type { i32, i32, %union.anon.1, ptr }
%union.anon.1 = type { i64 }
%struct.AVRational = type { i32, i32 }
%struct.AVFilterFormatsConfig = type { ptr, ptr, ptr, ptr, ptr }
%struct.AVPixFmtDescriptor = type { ptr, i8, i8, i8, i64, [4 x %struct.AVComponentDescriptor], ptr }
%struct.AVComponentDescriptor = type { i32, i32, i32, i32, i32 }

; Function Attrs: nounwind uwtable
define internal void @build_lut(ptr noundef %0, i32 noundef %1) #1 {
  %3 = alloca ptr, align 8
  %4 = alloca i32, align 4
  %5 = alloca ptr, align 8
  %6 = alloca i32, align 4
  %7 = alloca i32, align 4
  %8 = alloca i32, align 4
  %9 = alloca i32, align 4
  %10 = alloca i32, align 4
  store ptr %0, ptr %3, align 8, !tbaa !4
  store i32 %1, ptr %4, align 4, !tbaa !25
  call void @llvm.lifetime.start.p0(i64 8, ptr %5) #5
  %11 = load ptr, ptr %3, align 8, !tbaa !4
  %12 = getelementptr inbounds nuw %struct.AVFilterContext, ptr %11, i32 0, i32 9
  %13 = load ptr, ptr %12, align 8, !tbaa !9
  store ptr %13, ptr %5, align 8, !tbaa !22
  call void @llvm.lifetime.start.p0(i64 4, ptr %6) #5
  %14 = load ptr, ptr %5, align 8, !tbaa !22
  %15 = getelementptr inbounds nuw %struct.AverageBlurContext, ptr %14, i32 0, i32 2
  %16 = load i32, ptr %15, align 4, !tbaa !28
  %17 = mul nsw i32 2, %16
  %18 = add nsw i32 %17, 1
  %19 = load ptr, ptr %5, align 8, !tbaa !22
  %20 = getelementptr inbounds nuw %struct.AverageBlurContext, ptr %19, i32 0, i32 1
  %21 = load i32, ptr %20, align 8, !tbaa !29
  %22 = mul nsw i32 2, %21
  %23 = add nsw i32 %22, 1
  %24 = mul nsw i32 %18, %23
  store i32 %24, ptr %6, align 4, !tbaa !25
  %25 = load i32, ptr %6, align 4, !tbaa !25
  %26 = load ptr, ptr %5, align 8, !tbaa !22
  %27 = getelementptr inbounds nuw %struct.AverageBlurContext, ptr %26, i32 0, i32 6
  store i32 %25, ptr %27, align 4, !tbaa !26
  %28 = load i32, ptr %4, align 4, !tbaa !25
  %29 = load i32, ptr %6, align 4, !tbaa !25
  %30 = mul nsw i32 %28, %29
  %31 = sext i32 %30 to i64
  %32 = icmp uge i64 %31, 16777216
  br i1 %32, label %33, label %34

33:                                               ; preds = %2
  store i32 1, ptr %7, align 4
  br label %63

34:                                               ; preds = %2
  call void @llvm.lifetime.start.p0(i64 4, ptr %8) #5
  store i32 0, ptr %8, align 4, !tbaa !25
  call void @llvm.lifetime.start.p0(i64 4, ptr %9) #5
  store i32 0, ptr %9, align 4, !tbaa !25
  call void @llvm.lifetime.start.p0(i64 4, ptr %10) #5
  store i32 0, ptr %10, align 4, !tbaa !25
  br label %35

35:                                               ; preds = %57, %34
  %36 = load i32, ptr %8, align 4, !tbaa !25
  %37 = load i32, ptr %4, align 4, !tbaa !25
  %38 = load i32, ptr %6, align 4, !tbaa !25
  %39 = mul nsw i32 %37, %38
  %40 = icmp slt i32 %36, %39
  br i1 %40, label %42, label %41

41:                                               ; preds = %35
  store i32 2, ptr %7, align 4
  call void @llvm.lifetime.end.p0(i64 4, ptr %10) #5
  call void @llvm.lifetime.end.p0(i64 4, ptr %9) #5
  call void @llvm.lifetime.end.p0(i64 4, ptr %8) #5
  br label %62

42:                                               ; preds = %35
  %43 = load i32, ptr %9, align 4, !tbaa !25
  %44 = load i32, ptr %6, align 4, !tbaa !25
  %45 = icmp eq i32 %43, %44
  br i1 %45, label %46, label %49

46:                                               ; preds = %42
  %47 = load i32, ptr %10, align 4, !tbaa !25
  %48 = add nsw i32 %47, 1
  store i32 %48, ptr %10, align 4, !tbaa !25
  store i32 0, ptr %9, align 4, !tbaa !25
  br label %49

49:                                               ; preds = %46, %42
  %50 = load i32, ptr %10, align 4, !tbaa !25
  %51 = trunc i32 %50 to i16
  %52 = load ptr, ptr %5, align 8, !tbaa !22
  %53 = getelementptr inbounds nuw %struct.AverageBlurContext, ptr %52, i32 0, i32 10
  %54 = load i32, ptr %8, align 4, !tbaa !25
  %55 = sext i32 %54 to i64
  %56 = getelementptr inbounds [16777216 x i16], ptr %53, i64 0, i64 %55
  store i16 %51, ptr %56, align 2, !tbaa !83
  br label %57

57:                                               ; preds = %49
  %58 = load i32, ptr %8, align 4, !tbaa !25
  %59 = add nsw i32 %58, 1
  store i32 %59, ptr %8, align 4, !tbaa !25
  %60 = load i32, ptr %9, align 4, !tbaa !25
  %61 = add nsw i32 %60, 1
  store i32 %61, ptr %9, align 4, !tbaa !25
  br label %35, !llvm.loop !137

62:                                               ; preds = %41
  store i32 0, ptr %7, align 4
  br label %63

63:                                               ; preds = %62, %33
  call void @llvm.lifetime.end.p0(i64 4, ptr %6) #5
  call void @llvm.lifetime.end.p0(i64 8, ptr %5) #5
  %64 = load i32, ptr %7, align 4
  switch i32 %64, label %66 [
    i32 0, label %65
    i32 1, label %65
  ]

65:                                               ; preds = %63, %63
  ret void

66:                                               ; preds = %63
  unreachable
}

; Function Attrs: cold nounwind optsize uwtable
define internal void @uninit(ptr noundef %0) #0 {
  %2 = alloca ptr, align 8
  %3 = alloca ptr, align 8
  store ptr %0, ptr %2, align 8, !tbaa !4
  call void @llvm.lifetime.start.p0(i64 8, ptr %3) #5
  %4 = load ptr, ptr %2, align 8, !tbaa !4
  %5 = getelementptr inbounds nuw %struct.AVFilterContext, ptr %4, i32 0, i32 9
  %6 = load ptr, ptr %5, align 8, !tbaa !9
  store ptr %6, ptr %3, align 8, !tbaa !22
  %7 = load ptr, ptr %3, align 8, !tbaa !22
  %8 = getelementptr inbounds nuw %struct.AverageBlurContext, ptr %7, i32 0, i32 9
  call void @av_freep(ptr noundef %8)
  call void @llvm.lifetime.end.p0(i64 8, ptr %3) #5
  ret void
}

; Function Attrs: nounwind uwtable
define internal i32 @config_input(ptr noundef %0) #1 {
  %2 = alloca i32, align 4
  %3 = alloca ptr, align 8
  %4 = alloca ptr, align 8
  %5 = alloca ptr, align 8
  %6 = alloca ptr, align 8
  %7 = alloca i32, align 4
  store ptr %0, ptr %3, align 8, !tbaa !31
  call void @llvm.lifetime.start.p0(i64 8, ptr %4) #5
  %8 = load ptr, ptr %3, align 8, !tbaa !31
  %9 = getelementptr inbounds nuw %struct.AVFilterLink, ptr %8, i32 0, i32 2
  %10 = load ptr, ptr %9, align 8, !tbaa !35
  store ptr %10, ptr %4, align 8, !tbaa !4
  call void @llvm.lifetime.start.p0(i64 8, ptr %5) #5
  %11 = load ptr, ptr %3, align 8, !tbaa !31
  %12 = getelementptr inbounds nuw %struct.AVFilterLink, ptr %11, i32 0, i32 5
  %13 = load i32, ptr %12, align 4, !tbaa !51
  %14 = call ptr @av_pix_fmt_desc_get(i32 noundef %13)
  store ptr %14, ptr %5, align 8, !tbaa !52
  call void @llvm.lifetime.start.p0(i64 8, ptr %6) #5
  %15 = load ptr, ptr %4, align 8, !tbaa !4
  %16 = getelementptr inbounds nuw %struct.AVFilterContext, ptr %15, i32 0, i32 9
  %17 = load ptr, ptr %16, align 8, !tbaa !9
  store ptr %17, ptr %6, align 8, !tbaa !22
  %18 = load ptr, ptr %4, align 8, !tbaa !4
  call void @uninit(ptr noundef %18) #6
  %19 = load ptr, ptr %5, align 8, !tbaa !52
  %20 = getelementptr inbounds nuw %struct.AVPixFmtDescriptor, ptr %19, i32 0, i32 5
  %21 = getelementptr inbounds [4 x %struct.AVComponentDescriptor], ptr %20, i64 0, i64 0
  %22 = getelementptr inbounds nuw %struct.AVComponentDescriptor, ptr %21, i32 0, i32 4
  %23 = load i32, ptr %22, align 8, !tbaa !54
  %24 = load ptr, ptr %6, align 8, !tbaa !22
  %25 = getelementptr inbounds nuw %struct.AverageBlurContext, ptr %24, i32 0, i32 4
  store i32 %23, ptr %25, align 4, !tbaa !48
  %26 = load ptr, ptr %6, align 8, !tbaa !22
  %27 = getelementptr inbounds nuw %struct.AverageBlurContext, ptr %26, i32 0, i32 4
  %28 = load i32, ptr %27, align 4, !tbaa !48
  %29 = shl i32 1, %28
  %30 = load ptr, ptr %6, align 8, !tbaa !22
  %31 = getelementptr inbounds nuw %struct.AverageBlurContext, ptr %30, i32 0, i32 5
  store i32 %29, ptr %31, align 8, !tbaa !30
  %32 = load ptr, ptr %5, align 8, !tbaa !52
  %33 = getelementptr inbounds nuw %struct.AVPixFmtDescriptor, ptr %32, i32 0, i32 2
  %34 = load i8, ptr %33, align 1, !tbaa !56
  %35 = call i1 @llvm.is.constant.i8(i8 %34)
  br i1 %35, label %47, label %36

36:                                               ; preds = %1
  %37 = load ptr, ptr %3, align 8, !tbaa !31
  %38 = getelementptr inbounds nuw %struct.AVFilterLink, ptr %37, i32 0, i32 6
  %39 = load i32, ptr %38, align 8, !tbaa !44
  %40 = sub nsw i32 0, %39
  %41 = load ptr, ptr %5, align 8, !tbaa !52
  %42 = getelementptr inbounds nuw %struct.AVPixFmtDescriptor, ptr %41, i32 0, i32 2
  %43 = load i8, ptr %42, align 1, !tbaa !56
  %44 = zext i8 %43 to i32
  %45 = ashr i32 %40, %44
  %46 = sub nsw i32 0, %45
  br label %63

47:                                               ; preds = %1
  %48 = load ptr, ptr %3, align 8, !tbaa !31
  %49 = getelementptr inbounds nuw %struct.AVFilterLink, ptr %48, i32 0, i32 6
  %50 = load i32, ptr %49, align 8, !tbaa !44
  %51 = load ptr, ptr %5, align 8, !tbaa !52
  %52 = getelementptr inbounds nuw %struct.AVPixFmtDescriptor, ptr %51, i32 0, i32 2
  %53 = load i8, ptr %52, align 1, !tbaa !56
  %54 = zext i8 %53 to i32
  %55 = shl i32 1, %54
  %56 = add nsw i32 %50, %55
  %57 = sub nsw i32 %56, 1
  %58 = load ptr, ptr %5, align 8, !tbaa !52
  %59 = getelementptr inbounds nuw %struct.AVPixFmtDescriptor, ptr %58, i32 0, i32 2
  %60 = load i8, ptr %59, align 1, !tbaa !56
  %61 = zext i8 %60 to i32
  %62 = ashr i32 %57, %61
  br label %63

63:                                               ; preds = %47, %36
  %64 = phi i32 [ %46, %36 ], [ %62, %47 ]
  %65 = load ptr, ptr %6, align 8, !tbaa !22
  %66 = getelementptr inbounds nuw %struct.AverageBlurContext, ptr %65, i32 0, i32 7
  %67 = getelementptr inbounds [4 x i32], ptr %66, i64 0, i64 2
  store i32 %64, ptr %67, align 8, !tbaa !25
  %68 = load ptr, ptr %6, align 8, !tbaa !22
  %69 = getelementptr inbounds nuw %struct.AverageBlurContext, ptr %68, i32 0, i32 7
  %70 = getelementptr inbounds [4 x i32], ptr %69, i64 0, i64 1
  store i32 %64, ptr %70, align 4, !tbaa !25
  %71 = load ptr, ptr %3, align 8, !tbaa !31
  %72 = getelementptr inbounds nuw %struct.AVFilterLink, ptr %71, i32 0, i32 6
  %73 = load i32, ptr %72, align 8, !tbaa !44
  %74 = load ptr, ptr %6, align 8, !tbaa !22
  %75 = getelementptr inbounds nuw %struct.AverageBlurContext, ptr %74, i32 0, i32 7
  %76 = getelementptr inbounds [4 x i32], ptr %75, i64 0, i64 3
  store i32 %73, ptr %76, align 4, !tbaa !25
  %77 = load ptr, ptr %6, align 8, !tbaa !22
  %78 = getelementptr inbounds nuw %struct.AverageBlurContext, ptr %77, i32 0, i32 7
  %79 = getelementptr inbounds [4 x i32], ptr %78, i64 0, i64 0
  store i32 %73, ptr %79, align 8, !tbaa !25
  %80 = load ptr, ptr %5, align 8, !tbaa !52
  %81 = getelementptr inbounds nuw %struct.AVPixFmtDescriptor, ptr %80, i32 0, i32 3
  %82 = load i8, ptr %81, align 2, !tbaa !59
  %83 = call i1 @llvm.is.constant.i8(i8 %82)
  br i1 %83, label %95, label %84

84:                                               ; preds = %63
  %85 = load ptr, ptr %3, align 8, !tbaa !31
  %86 = getelementptr inbounds nuw %struct.AVFilterLink, ptr %85, i32 0, i32 7
  %87 = load i32, ptr %86, align 4, !tbaa !45
  %88 = sub nsw i32 0, %87
  %89 = load ptr, ptr %5, align 8, !tbaa !52
  %90 = getelementptr inbounds nuw %struct.AVPixFmtDescriptor, ptr %89, i32 0, i32 3
  %91 = load i8, ptr %90, align 2, !tbaa !59
  %92 = zext i8 %91 to i32
  %93 = ashr i32 %88, %92
  %94 = sub nsw i32 0, %93
  br label %111

95:                                               ; preds = %63
  %96 = load ptr, ptr %3, align 8, !tbaa !31
  %97 = getelementptr inbounds nuw %struct.AVFilterLink, ptr %96, i32 0, i32 7
  %98 = load i32, ptr %97, align 4, !tbaa !45
  %99 = load ptr, ptr %5, align 8, !tbaa !52
  %100 = getelementptr inbounds nuw %struct.AVPixFmtDescriptor, ptr %99, i32 0, i32 3
  %101 = load i8, ptr %100, align 2, !tbaa !59
  %102 = zext i8 %101 to i32
  %103 = shl i32 1, %102
  %104 = add nsw i32 %98, %103
  %105 = sub nsw i32 %104, 1
  %106 = load ptr, ptr %5, align 8, !tbaa !52
  %107 = getelementptr inbounds nuw %struct.AVPixFmtDescriptor, ptr %106, i32 0, i32 3
  %108 = load i8, ptr %107, align 2, !tbaa !59
  %109 = zext i8 %108 to i32
  %110 = ashr i32 %105, %109
  br label %111

111:                                              ; preds = %95, %84
  %112 = phi i32 [ %94, %84 ], [ %110, %95 ]
  %113 = load ptr, ptr %6, align 8, !tbaa !22
  %114 = getelementptr inbounds nuw %struct.AverageBlurContext, ptr %113, i32 0, i32 8
  %115 = getelementptr inbounds [4 x i32], ptr %114, i64 0, i64 2
  store i32 %112, ptr %115, align 8, !tbaa !25
  %116 = load ptr, ptr %6, align 8, !tbaa !22
  %117 = getelementptr inbounds nuw %struct.AverageBlurContext, ptr %116, i32 0, i32 8
  %118 = getelementptr inbounds [4 x i32], ptr %117, i64 0, i64 1
  store i32 %112, ptr %118, align 4, !tbaa !25
  %119 = load ptr, ptr %3, align 8, !tbaa !31
  %120 = getelementptr inbounds nuw %struct.AVFilterLink, ptr %119, i32 0, i32 7
  %121 = load i32, ptr %120, align 4, !tbaa !45
  %122 = load ptr, ptr %6, align 8, !tbaa !22
  %123 = getelementptr inbounds nuw %struct.AverageBlurContext, ptr %122, i32 0, i32 8
  %124 = getelementptr inbounds [4 x i32], ptr %123, i64 0, i64 3
  store i32 %121, ptr %124, align 4, !tbaa !25
  %125 = load ptr, ptr %6, align 8, !tbaa !22
  %126 = getelementptr inbounds nuw %struct.AverageBlurContext, ptr %125, i32 0, i32 8
  %127 = getelementptr inbounds [4 x i32], ptr %126, i64 0, i64 0
  store i32 %121, ptr %127, align 8, !tbaa !25
  %128 = load ptr, ptr %3, align 8, !tbaa !31
  %129 = getelementptr inbounds nuw %struct.AVFilterLink, ptr %128, i32 0, i32 5
  %130 = load i32, ptr %129, align 4, !tbaa !51
  %131 = call i32 @av_pix_fmt_count_planes(i32 noundef %130)
  %132 = load ptr, ptr %6, align 8, !tbaa !22
  %133 = getelementptr inbounds nuw %struct.AverageBlurContext, ptr %132, i32 0, i32 11
  store i32 %131, ptr %133, align 8, !tbaa !46
  %134 = load ptr, ptr %3, align 8, !tbaa !31
  %135 = getelementptr inbounds nuw %struct.AVFilterLink, ptr %134, i32 0, i32 6
  %136 = load i32, ptr %135, align 8, !tbaa !44
  %137 = add nsw i32 %136, 2049
  %138 = sext i32 %137 to i64
  %139 = load ptr, ptr %6, align 8, !tbaa !22
  %140 = getelementptr inbounds nuw %struct.AverageBlurContext, ptr %139, i32 0, i32 4
  %141 = load i32, ptr %140, align 4, !tbaa !48
  %142 = add nsw i32 %141, 7
  %143 = sdiv i32 %142, 8
  %144 = mul nsw i32 4, %143
  %145 = sext i32 %144 to i64
  %146 = call noalias ptr @av_calloc(i64 noundef %138, i64 noundef %145)
  %147 = load ptr, ptr %6, align 8, !tbaa !22
  %148 = getelementptr inbounds nuw %struct.AverageBlurContext, ptr %147, i32 0, i32 9
  store ptr %146, ptr %148, align 8, !tbaa !60
  %149 = load ptr, ptr %6, align 8, !tbaa !22
  %150 = getelementptr inbounds nuw %struct.AverageBlurContext, ptr %149, i32 0, i32 9
  %151 = load ptr, ptr %150, align 8, !tbaa !60
  %152 = icmp ne ptr %151, null
  br i1 %152, label %154, label %153

153:                                              ; preds = %111
  store i32 -12, ptr %2, align 4
  store i32 1, ptr %7, align 4
  br label %232

154:                                              ; preds = %111
  %155 = load ptr, ptr %6, align 8, !tbaa !22
  %156 = getelementptr inbounds nuw %struct.AverageBlurContext, ptr %155, i32 0, i32 2
  %157 = load i32, ptr %156, align 4, !tbaa !28
  %158 = icmp sle i32 %157, 0
  br i1 %158, label %159, label %165

159:                                              ; preds = %154
  %160 = load ptr, ptr %6, align 8, !tbaa !22
  %161 = getelementptr inbounds nuw %struct.AverageBlurContext, ptr %160, i32 0, i32 1
  %162 = load i32, ptr %161, align 8, !tbaa !29
  %163 = load ptr, ptr %6, align 8, !tbaa !22
  %164 = getelementptr inbounds nuw %struct.AverageBlurContext, ptr %163, i32 0, i32 2
  store i32 %162, ptr %164, align 4, !tbaa !28
  br label %165

165:                                              ; preds = %159, %154
  %166 = load ptr, ptr %6, align 8, !tbaa !22
  %167 = getelementptr inbounds nuw %struct.AverageBlurContext, ptr %166, i32 0, i32 4
  %168 = load i32, ptr %167, align 4, !tbaa !48
  %169 = icmp sle i32 %168, 8
  %170 = select i1 %169, ptr @filter_lut8, ptr @filter_lut16
  %171 = load ptr, ptr %6, align 8, !tbaa !22
  %172 = getelementptr inbounds nuw %struct.AverageBlurContext, ptr %171, i32 0, i32 12
  %173 = getelementptr inbounds [2 x ptr], ptr %172, i64 0, i64 0
  store ptr %170, ptr %173, align 8, !tbaa !61
  %174 = load ptr, ptr %6, align 8, !tbaa !22
  %175 = getelementptr inbounds nuw %struct.AverageBlurContext, ptr %174, i32 0, i32 4
  %176 = load i32, ptr %175, align 4, !tbaa !48
  %177 = icmp sle i32 %176, 8
  %178 = select i1 %177, ptr @filter_slow8, ptr @filter_slow16
  %179 = load ptr, ptr %6, align 8, !tbaa !22
  %180 = getelementptr inbounds nuw %struct.AverageBlurContext, ptr %179, i32 0, i32 12
  %181 = getelementptr inbounds [2 x ptr], ptr %180, i64 0, i64 1
  store ptr %178, ptr %181, align 8, !tbaa !61
  %182 = load ptr, ptr %6, align 8, !tbaa !22
  %183 = getelementptr inbounds nuw %struct.AverageBlurContext, ptr %182, i32 0, i32 7
  %184 = getelementptr inbounds [4 x i32], ptr %183, i64 0, i64 1
  %185 = load i32, ptr %184, align 4, !tbaa !25
  %186 = sdiv i32 %185, 2
  %187 = load ptr, ptr %6, align 8, !tbaa !22
  %188 = getelementptr inbounds nuw %struct.AverageBlurContext, ptr %187, i32 0, i32 1
  %189 = load i32, ptr %188, align 8, !tbaa !29
  %190 = icmp sgt i32 %186, %189
  br i1 %190, label %191, label %195

191:                                              ; preds = %165
  %192 = load ptr, ptr %6, align 8, !tbaa !22
  %193 = getelementptr inbounds nuw %struct.AverageBlurContext, ptr %192, i32 0, i32 1
  %194 = load i32, ptr %193, align 8, !tbaa !29
  br label %201

195:                                              ; preds = %165
  %196 = load ptr, ptr %6, align 8, !tbaa !22
  %197 = getelementptr inbounds nuw %struct.AverageBlurContext, ptr %196, i32 0, i32 7
  %198 = getelementptr inbounds [4 x i32], ptr %197, i64 0, i64 1
  %199 = load i32, ptr %198, align 4, !tbaa !25
  %200 = sdiv i32 %199, 2
  br label %201

201:                                              ; preds = %195, %191
  %202 = phi i32 [ %194, %191 ], [ %200, %195 ]
  %203 = load ptr, ptr %6, align 8, !tbaa !22
  %204 = getelementptr inbounds nuw %struct.AverageBlurContext, ptr %203, i32 0, i32 1
  store i32 %202, ptr %204, align 8, !tbaa !29
  %205 = load ptr, ptr %6, align 8, !tbaa !22
  %206 = getelementptr inbounds nuw %struct.AverageBlurContext, ptr %205, i32 0, i32 8
  %207 = getelementptr inbounds [4 x i32], ptr %206, i64 0, i64 1
  %208 = load i32, ptr %207, align 4, !tbaa !25
  %209 = sdiv i32 %208, 2
  %210 = load ptr, ptr %6, align 8, !tbaa !22
  %211 = getelementptr inbounds nuw %struct.AverageBlurContext, ptr %210, i32 0, i32 2
  %212 = load i32, ptr %211, align 4, !tbaa !28
  %213 = icmp sgt i32 %209, %212
  br i1 %213, label %214, label %218

214:                                              ; preds = %201
  %215 = load ptr, ptr %6, align 8, !tbaa !22
  %216 = getelementptr inbounds nuw %struct.AverageBlurContext, ptr %215, i32 0, i32 2
  %217 = load i32, ptr %216, align 4, !tbaa !28
  br label %224

218:                                              ; preds = %201
  %219 = load ptr, ptr %6, align 8, !tbaa !22
  %220 = getelementptr inbounds nuw %struct.AverageBlurContext, ptr %219, i32 0, i32 8
  %221 = getelementptr inbounds [4 x i32], ptr %220, i64 0, i64 1
  %222 = load i32, ptr %221, align 4, !tbaa !25
  %223 = sdiv i32 %222, 2
  br label %224

224:                                              ; preds = %218, %214
  %225 = phi i32 [ %217, %214 ], [ %223, %218 ]
  %226 = load ptr, ptr %6, align 8, !tbaa !22
  %227 = getelementptr inbounds nuw %struct.AverageBlurContext, ptr %226, i32 0, i32 2
  store i32 %225, ptr %227, align 4, !tbaa !28
  %228 = load ptr, ptr %4, align 8, !tbaa !4
  %229 = load ptr, ptr %6, align 8, !tbaa !22
  %230 = getelementptr inbounds nuw %struct.AverageBlurContext, ptr %229, i32 0, i32 5
  %231 = load i32, ptr %230, align 8, !tbaa !30
  call void @build_lut(ptr noundef %228, i32 noundef %231)
  store i32 0, ptr %2, align 4
  store i32 1, ptr %7, align 4
  br label %232

232:                                              ; preds = %224, %153
  call void @llvm.lifetime.end.p0(i64 8, ptr %6) #5
  call void @llvm.lifetime.end.p0(i64 8, ptr %5) #5
  call void @llvm.lifetime.end.p0(i64 8, ptr %4) #5
  %233 = load i32, ptr %2, align 4
  ret i32 %233
}