; Function Attrs: nounwind uwtable
define internal range(i32 -12, 1) i32 @config_input(ptr noundef readonly captures(none) %0) #1 {
  %2 = getelementptr inbounds nuw i8, ptr %0, i64 16
  %3 = load ptr, ptr %2, align 8, !tbaa !32
  %4 = getelementptr inbounds nuw i8, ptr %0, i64 36
  %5 = load i32, ptr %4, align 4, !tbaa !59
  %6 = tail call ptr @av_pix_fmt_desc_get(i32 noundef %5) #6
  %7 = getelementptr inbounds nuw i8, ptr %3, i64 72
  %8 = load ptr, ptr %7, align 8, !tbaa !4
  %9 = getelementptr inbounds nuw i8, ptr %8, i64 64
  tail call void @av_freep(ptr noundef nonnull %9) #6
  %10 = getelementptr inbounds nuw i8, ptr %6, i64 40
  %11 = load i32, ptr %10, align 8, !tbaa !60
  %12 = getelementptr inbounds nuw i8, ptr %8, i64 20
  store i32 %11, ptr %12, align 4, !tbaa !49
  %13 = shl nuw i32 1, %11
  %14 = getelementptr inbounds nuw i8, ptr %8, i64 24
  store i32 %13, ptr %14, align 8, !tbaa !25
  %15 = getelementptr inbounds nuw i8, ptr %0, i64 40
  %16 = load i32, ptr %15, align 8, !tbaa !44
  %17 = sub nsw i32 0, %16
  %18 = getelementptr inbounds nuw i8, ptr %6, i64 9
  %19 = load i8, ptr %18, align 1, !tbaa !62
  %20 = zext nneg i8 %19 to i32
  %21 = ashr i32 %17, %20
  %22 = sub nsw i32 0, %21
  %23 = getelementptr inbounds nuw i8, ptr %8, i64 32
  %24 = getelementptr inbounds nuw i8, ptr %8, i64 40
  store i32 %22, ptr %24, align 8, !tbaa !24
  %25 = getelementptr inbounds nuw i8, ptr %8, i64 36
  store i32 %22, ptr %25, align 4, !tbaa !24
  %26 = getelementptr inbounds nuw i8, ptr %0, i64 40
  %27 = load i32, ptr %26, align 8, !tbaa !44
  %28 = getelementptr inbounds nuw i8, ptr %8, i64 44
  store i32 %27, ptr %28, align 4, !tbaa !24
  store i32 %27, ptr %23, align 8, !tbaa !24
  %29 = getelementptr inbounds nuw i8, ptr %0, i64 44
  %30 = load i32, ptr %29, align 4, !tbaa !45
  %31 = sub nsw i32 0, %30
  %32 = getelementptr inbounds nuw i8, ptr %6, i64 10
  %33 = load i8, ptr %32, align 2, !tbaa !65
  %34 = zext nneg i8 %33 to i32
  %35 = ashr i32 %31, %34
  %36 = sub nsw i32 0, %35
  %37 = getelementptr inbounds nuw i8, ptr %8, i64 48
  %38 = getelementptr inbounds nuw i8, ptr %8, i64 56
  store i32 %36, ptr %38, align 8, !tbaa !24
  %39 = getelementptr inbounds nuw i8, ptr %8, i64 52
  store i32 %36, ptr %39, align 4, !tbaa !24
  %40 = getelementptr inbounds nuw i8, ptr %0, i64 44
  %41 = load i32, ptr %40, align 4, !tbaa !45
  %42 = getelementptr inbounds nuw i8, ptr %8, i64 60
  store i32 %41, ptr %42, align 4, !tbaa !24
  store i32 %41, ptr %37, align 8, !tbaa !24
  %43 = load i32, ptr %4, align 4, !tbaa !59
  %44 = tail call i32 @av_pix_fmt_count_planes(i32 noundef %43) #6
  %45 = getelementptr inbounds nuw i8, ptr %8, i64 33554504
  store i32 %44, ptr %45, align 8, !tbaa !46
  %46 = load i32, ptr %26, align 8, !tbaa !44
  %47 = add nsw i32 %46, 2049
  %48 = sext i32 %47 to i64
  %49 = load i32, ptr %12, align 4, !tbaa !49
  %50 = add nsw i32 %49, 7
  %51 = sdiv i32 %50, 8
  %52 = shl nsw i32 %51, 2
  %53 = sext i32 %52 to i64
  %54 = tail call noalias ptr @av_calloc(i64 noundef %48, i64 noundef %53) #6
  store ptr %54, ptr %9, align 8, !tbaa !66
  %.not = icmp eq ptr %54, null
  br i1 %.not, label %build_lut.exit, label %55

55:                                               ; preds = %1
  %56 = getelementptr inbounds nuw i8, ptr %8, i64 12
  %57 = load i32, ptr %56, align 4, !tbaa !22
  %58 = icmp slt i32 %57, 1
  %59 = getelementptr inbounds nuw i8, ptr %8, i64 8
  %60 = load i32, ptr %59, align 8, !tbaa !23
  %.60 = select i1 %58, i32 %60, i32 %57
  %61 = load i32, ptr %12, align 4, !tbaa !49
  %62 = icmp slt i32 %61, 9
  %63 = select i1 %62, ptr @filter_lut8, ptr @filter_lut16
  %64 = getelementptr inbounds nuw i8, ptr %8, i64 33554512
  store ptr %63, ptr %64, align 8, !tbaa !57
  %65 = select i1 %62, ptr @filter_slow8, ptr @filter_slow16
  %66 = getelementptr inbounds nuw i8, ptr %8, i64 33554520
  store ptr %65, ptr %66, align 8, !tbaa !57
  %67 = load i32, ptr %25, align 4, !tbaa !24
  %68 = sdiv i32 %67, 2
  %69 = getelementptr inbounds nuw i8, ptr %8, i64 8
  %. = tail call i32 @llvm.smin.i32(i32 %68, i32 %60)
  store i32 %., ptr %69, align 8, !tbaa !23
  %70 = load i32, ptr %39, align 4, !tbaa !24
  %71 = sdiv i32 %70, 2
  %72 = tail call i32 @llvm.smin.i32(i32 %71, i32 %.60)
  store i32 %72, ptr %56, align 4, !tbaa !22
  %73 = load i32, ptr %14, align 8, !tbaa !25
  %.val = load ptr, ptr %7, align 8, !tbaa !4
  %74 = getelementptr inbounds nuw i8, ptr %.val, i64 12
  %75 = load i32, ptr %74, align 4, !tbaa !22
  %76 = shl nsw i32 %75, 1
  %77 = or disjoint i32 %76, 1
  %78 = getelementptr inbounds nuw i8, ptr %.val, i64 8
  %79 = load i32, ptr %78, align 8, !tbaa !23
  %80 = shl nsw i32 %79, 1
  %81 = or disjoint i32 %80, 1
  %82 = mul nsw i32 %81, %77
  %83 = getelementptr inbounds nuw i8, ptr %.val, i64 28
  store i32 %82, ptr %83, align 4, !tbaa !20
  %84 = mul nsw i32 %82, %73
  %85 = add i32 %84, -1
  %or.cond.i = icmp ult i32 %85, 16777215
  br i1 %or.cond.i, label %.lr.ph.i, label %build_lut.exit

.lr.ph.i:                                         ; preds = %55
  %86 = getelementptr inbounds nuw i8, ptr %.val, i64 72
  %wide.trip.count.i = zext nneg i32 %84 to i64
  br label %87

87:                                               ; preds = %87, %.lr.ph.i
  %indvars.iv.i = phi i64 [ 0, %.lr.ph.i ], [ %indvars.iv.next.i, %87 ]
  %.03.i = phi i16 [ 0, %.lr.ph.i ], [ %spec.select20.i, %87 ]
  %.0172.i = phi i32 [ 0, %.lr.ph.i ], [ %92, %87 ]
  %88 = icmp eq i32 %.0172.i, %82
  %89 = zext i1 %88 to i16
  %spec.select20.i = add i16 %.03.i, %89
  %90 = getelementptr inbounds nuw [16777216 x i16], ptr %86, i64 0, i64 %indvars.iv.i
  store i16 %spec.select20.i, ptr %90, align 2, !tbaa !26
  %indvars.iv.next.i = add nuw nsw i64 %indvars.iv.i, 1
  %91 = add nsw i32 %.0172.i, 1
  %92 = select i1 %88, i32 1, i32 %91
  %exitcond.not.i = icmp eq i64 %indvars.iv.next.i, %wide.trip.count.i
  br i1 %exitcond.not.i, label %build_lut.exit, label %87, !llvm.loop !28

build_lut.exit:                                   ; preds = %87, %55, %1
  %.0 = phi i32 [ -12, %1 ], [ 0, %55 ], [ 0, %87 ]
  ret i32 %.0
}